#include <math.h>
#include <stdio.h>
#include <stdlib.h>
#include <string.h>

void main()
{
    int a[100][100],row,col,i,j,k,n;
    scanf("%d%d",&row,&col);
	for(i=0;i<row;i++)
		for(j=0;j<col;j++)
			scanf("%d",&a[i][j]);
	
	for(n=0;n<col;n++)
	{
		i=0;j=n;
	    for(k=n;k>=0;k--)
		{
			printf("%d\n",a[i][j]);
			i++;j--;
			if(i>=row||j>=col)
				break;
		}
	}
	for(n=1;n<row;n++)
	{
		i=n;j=col-1;
		for(k=n;k<=row-1;k++)
		{
			printf("%d\n",a[i][j]);
			i++;j--;
            if(i>=row||j<0)
				break;
		}
	}
	
}