; ModuleID = '4/1041.c'
source_filename = "4/1041.c"
target datalayout = "e-m:e-p270:32:32-p271:32:32-p272:64:64-i64:64-f80:128-n8:16:32:64-S128"
target triple = "x86_64-pc-linux-gnu"

@.str = private unnamed_addr constant [5 x i8] c"%d%d\00", align 1
@.str.1 = private unnamed_addr constant [3 x i8] c"%d\00", align 1
@.str.2 = private unnamed_addr constant [4 x i8] c"%d\0A\00", align 1

; Function Attrs: noinline nounwind uwtable
define dso_local void @main() #0 {
  %1 = alloca [100 x [100 x i32]], align 16
  %2 = alloca i32, align 4
  %3 = alloca i32, align 4
  %4 = alloca i32, align 4
  %5 = alloca i32, align 4
  %6 = alloca i32, align 4
  %7 = alloca i32, align 4
  %8 = call i32 (i8*, ...) @__isoc99_scanf(i8* getelementptr inbounds ([5 x i8], [5 x i8]* @.str, i64 0, i64 0), i32* %2, i32* %3)
  store i32 0, i32* %4, align 4
  br label %9

9:                                                ; preds = %30, %0
  %10 = load i32, i32* %4, align 4
  %11 = load i32, i32* %2, align 4
  %12 = icmp slt i32 %10, %11
  br i1 %12, label %13, label %33

13:                                               ; preds = %9
  store i32 0, i32* %5, align 4
  br label %14

14:                                               ; preds = %26, %13
  %15 = load i32, i32* %5, align 4
  %16 = load i32, i32* %3, align 4
  %17 = icmp slt i32 %15, %16
  br i1 %17, label %18, label %29

18:                                               ; preds = %14
  %19 = load i32, i32* %4, align 4
  %20 = sext i32 %19 to i64
  %21 = getelementptr inbounds [100 x [100 x i32]], [100 x [100 x i32]]* %1, i64 0, i64 %20
  %22 = load i32, i32* %5, align 4
  %23 = sext i32 %22 to i64
  %24 = getelementptr inbounds [100 x i32], [100 x i32]* %21, i64 0, i64 %23
  %25 = call i32 (i8*, ...) @__isoc99_scanf(i8* getelementptr inbounds ([3 x i8], [3 x i8]* @.str.1, i64 0, i64 0), i32* %24)
  br label %26

26:                                               ; preds = %18
  %27 = load i32, i32* %5, align 4
  %28 = add nsw i32 %27, 1
  store i32 %28, i32* %5, align 4
  br label %14

29:                                               ; preds = %14
  br label %30

30:                                               ; preds = %29
  %31 = load i32, i32* %4, align 4
  %32 = add nsw i32 %31, 1
  store i32 %32, i32* %4, align 4
  br label %9

33:                                               ; preds = %9
  store i32 0, i32* %7, align 4
  br label %34

34:                                               ; preds = %70, %33
  %35 = load i32, i32* %7, align 4
  %36 = load i32, i32* %3, align 4
  %37 = icmp slt i32 %35, %36
  br i1 %37, label %38, label %73

38:                                               ; preds = %34
  store i32 0, i32* %4, align 4
  %39 = load i32, i32* %7, align 4
  store i32 %39, i32* %5, align 4
  %40 = load i32, i32* %7, align 4
  store i32 %40, i32* %6, align 4
  br label %41

41:                                               ; preds = %66, %38
  %42 = load i32, i32* %6, align 4
  %43 = icmp sge i32 %42, 0
  br i1 %43, label %44, label %69

44:                                               ; preds = %41
  %45 = load i32, i32* %4, align 4
  %46 = sext i32 %45 to i64
  %47 = getelementptr inbounds [100 x [100 x i32]], [100 x [100 x i32]]* %1, i64 0, i64 %46
  %48 = load i32, i32* %5, align 4
  %49 = sext i32 %48 to i64
  %50 = getelementptr inbounds [100 x i32], [100 x i32]* %47, i64 0, i64 %49
  %51 = load i32, i32* %50, align 4
  %52 = call i32 (i8*, ...) @printf(i8* getelementptr inbounds ([4 x i8], [4 x i8]* @.str.2, i64 0, i64 0), i32 %51)
  %53 = load i32, i32* %4, align 4
  %54 = add nsw i32 %53, 1
  store i32 %54, i32* %4, align 4
  %55 = load i32, i32* %5, align 4
  %56 = add nsw i32 %55, -1
  store i32 %56, i32* %5, align 4
  %57 = load i32, i32* %4, align 4
  %58 = load i32, i32* %2, align 4
  %59 = icmp sge i32 %57, %58
  br i1 %59, label %64, label %60

60:                                               ; preds = %44
  %61 = load i32, i32* %5, align 4
  %62 = load i32, i32* %3, align 4
  %63 = icmp sge i32 %61, %62
  br i1 %63, label %64, label %65

64:                                               ; preds = %60, %44
  br label %69

65:                                               ; preds = %60
  br label %66

66:                                               ; preds = %65
  %67 = load i32, i32* %6, align 4
  %68 = add nsw i32 %67, -1
  store i32 %68, i32* %6, align 4
  br label %41

69:                                               ; preds = %64, %41
  br label %70

70:                                               ; preds = %69
  %71 = load i32, i32* %7, align 4
  %72 = add nsw i32 %71, 1
  store i32 %72, i32* %7, align 4
  br label %34

73:                                               ; preds = %34
  store i32 1, i32* %7, align 4
  br label %74

74:                                               ; preds = %113, %73
  %75 = load i32, i32* %7, align 4
  %76 = load i32, i32* %2, align 4
  %77 = icmp slt i32 %75, %76
  br i1 %77, label %78, label %116

78:                                               ; preds = %74
  %79 = load i32, i32* %7, align 4
  store i32 %79, i32* %4, align 4
  %80 = load i32, i32* %3, align 4
  %81 = sub nsw i32 %80, 1
  store i32 %81, i32* %5, align 4
  %82 = load i32, i32* %7, align 4
  store i32 %82, i32* %6, align 4
  br label %83

83:                                               ; preds = %109, %78
  %84 = load i32, i32* %6, align 4
  %85 = load i32, i32* %2, align 4
  %86 = sub nsw i32 %85, 1
  %87 = icmp sle i32 %84, %86
  br i1 %87, label %88, label %112

88:                                               ; preds = %83
  %89 = load i32, i32* %4, align 4
  %90 = sext i32 %89 to i64
  %91 = getelementptr inbounds [100 x [100 x i32]], [100 x [100 x i32]]* %1, i64 0, i64 %90
  %92 = load i32, i32* %5, align 4
  %93 = sext i32 %92 to i64
  %94 = getelementptr inbounds [100 x i32], [100 x i32]* %91, i64 0, i64 %93
  %95 = load i32, i32* %94, align 4
  %96 = call i32 (i8*, ...) @printf(i8* getelementptr inbounds ([4 x i8], [4 x i8]* @.str.2, i64 0, i64 0), i32 %95)
  %97 = load i32, i32* %4, align 4
  %98 = add nsw i32 %97, 1
  store i32 %98, i32* %4, align 4
  %99 = load i32, i32* %5, align 4
  %100 = add nsw i32 %99, -1
  store i32 %100, i32* %5, align 4
  %101 = load i32, i32* %4, align 4
  %102 = load i32, i32* %2, align 4
  %103 = icmp sge i32 %101, %102
  br i1 %103, label %107, label %104

104:                                              ; preds = %88
  %105 = load i32, i32* %5, align 4
  %106 = icmp slt i32 %105, 0
  br i1 %106, label %107, label %108

107:                                              ; preds = %104, %88
  br label %112

108:                                              ; preds = %104
  br label %109

109:                                              ; preds = %108
  %110 = load i32, i32* %6, align 4
  %111 = add nsw i32 %110, 1
  store i32 %111, i32* %6, align 4
  br label %83

112:                                              ; preds = %107, %83
  br label %113

113:                                              ; preds = %112
  %114 = load i32, i32* %7, align 4
  %115 = add nsw i32 %114, 1
  store i32 %115, i32* %7, align 4
  br label %74

116:                                              ; preds = %74
  ret void
}

declare dso_local i32 @__isoc99_scanf(i8*, ...) #1

declare dso_local i32 @printf(i8*, ...) #1


!llvm.module.flags = !{!0}
!llvm.ident = !{!1}

!0 = !{i32 1, !"wchar_size", i32 4}
!1 = !{!"clang version 10.0.0-4ubuntu1 "}
