; ModuleID = 'source-C-CXX/3/1041.c'
source_filename = "source-C-CXX/3/1041.c"
target datalayout = "e-m:e-p270:32:32-p271:32:32-p272:64:64-i64:64-f80:128-n8:16:32:64-S128"
target triple = "x86_64-pc-linux-gnu"

@.str = private unnamed_addr constant [5 x i8] c"%d%d\00", align 1
@.str.1 = private unnamed_addr constant [3 x i8] c"%d\00", align 1
@.str.2 = private unnamed_addr constant [4 x i8] c"%d\0A\00", align 1

; Function Attrs: nofree nounwind sspstrong uwtable
define dso_local void @main() local_unnamed_addr #0 {
  %1 = alloca [100 x [100 x i32]], align 16
  %2 = alloca i32, align 4
  %3 = alloca i32, align 4
  %4 = bitcast [100 x [100 x i32]]* %1 to i8*
  call void @llvm.lifetime.start.p0i8(i64 40000, i8* nonnull %4) #3
  %5 = bitcast i32* %2 to i8*
  call void @llvm.lifetime.start.p0i8(i64 4, i8* nonnull %5) #3
  %6 = bitcast i32* %3 to i8*
  call void @llvm.lifetime.start.p0i8(i64 4, i8* nonnull %6) #3
  %7 = call i32 (i8*, ...) @__isoc99_scanf(i8* getelementptr inbounds ([5 x i8], [5 x i8]* @.str, i64 0, i64 0), i32* nonnull %2, i32* nonnull %3)
  %8 = load i32, i32* %2, align 4, !tbaa !5
  %9 = icmp sgt i32 %8, 0
  %10 = load i32, i32* %3, align 4, !tbaa !5
  br i1 %9, label %11, label %18

11:                                               ; preds = %0
  %12 = icmp sgt i32 %10, 0
  br i1 %12, label %13, label %42

13:                                               ; preds = %11, %32
  %14 = phi i32 [ %33, %32 ], [ %8, %11 ]
  %15 = phi i32 [ %34, %32 ], [ %10, %11 ]
  %16 = phi i64 [ %35, %32 ], [ 0, %11 ]
  %17 = icmp sgt i32 %15, 0
  br i1 %17, label %22, label %32

18:                                               ; preds = %32, %0
  %19 = phi i32 [ %8, %0 ], [ %33, %32 ]
  %20 = phi i32 [ %10, %0 ], [ %34, %32 ]
  %21 = icmp sgt i32 %20, 0
  br i1 %21, label %38, label %42

22:                                               ; preds = %13, %22
  %23 = phi i64 [ %26, %22 ], [ 0, %13 ]
  %24 = getelementptr inbounds [100 x [100 x i32]], [100 x [100 x i32]]* %1, i64 0, i64 %16, i64 %23
  %25 = call i32 (i8*, ...) @__isoc99_scanf(i8* getelementptr inbounds ([3 x i8], [3 x i8]* @.str.1, i64 0, i64 0), i32* nonnull %24)
  %26 = add nuw nsw i64 %23, 1
  %27 = load i32, i32* %3, align 4, !tbaa !5
  %28 = sext i32 %27 to i64
  %29 = icmp slt i64 %26, %28
  br i1 %29, label %22, label %30, !llvm.loop !9

30:                                               ; preds = %22
  %31 = load i32, i32* %2, align 4, !tbaa !5
  br label %32

32:                                               ; preds = %30, %13
  %33 = phi i32 [ %31, %30 ], [ %14, %13 ]
  %34 = phi i32 [ %27, %30 ], [ %15, %13 ]
  %35 = add nuw nsw i64 %16, 1
  %36 = sext i32 %33 to i64
  %37 = icmp slt i64 %35, %36
  br i1 %37, label %13, label %18, !llvm.loop !11

38:                                               ; preds = %18, %63
  %39 = phi i64 [ %67, %63 ], [ 1, %18 ]
  %40 = phi i64 [ %66, %63 ], [ 0, %18 ]
  %41 = phi i32 [ %64, %63 ], [ 0, %18 ]
  br label %46

42:                                               ; preds = %63, %11, %18
  %43 = phi i32 [ %20, %18 ], [ %10, %11 ], [ %56, %63 ]
  %44 = phi i32 [ %19, %18 ], [ %8, %11 ], [ %53, %63 ]
  %45 = icmp sgt i32 %44, 1
  br i1 %45, label %68, label %100

46:                                               ; preds = %46, %38
  %47 = phi i64 [ 0, %38 ], [ %52, %46 ]
  %48 = phi i64 [ %40, %38 ], [ %60, %46 ]
  %49 = getelementptr inbounds [100 x [100 x i32]], [100 x [100 x i32]]* %1, i64 0, i64 %47, i64 %48
  %50 = load i32, i32* %49, align 4, !tbaa !5
  %51 = call i32 (i8*, ...) @printf(i8* nonnull dereferenceable(1) getelementptr inbounds ([4 x i8], [4 x i8]* @.str.2, i64 0, i64 0), i32 %50)
  %52 = add nuw nsw i64 %47, 1
  %53 = load i32, i32* %2, align 4, !tbaa !5
  %54 = sext i32 %53 to i64
  %55 = icmp sge i64 %52, %54
  %56 = load i32, i32* %3, align 4
  %57 = sext i32 %56 to i64
  %58 = icmp sgt i64 %48, %57
  %59 = select i1 %55, i1 true, i1 %58
  %60 = add nsw i64 %48, -1
  %61 = icmp eq i64 %52, %39
  %62 = select i1 %59, i1 true, i1 %61
  br i1 %62, label %63, label %46, !llvm.loop !13

63:                                               ; preds = %46
  %64 = add nuw nsw i32 %41, 1
  %65 = icmp slt i32 %64, %56
  %66 = add nuw nsw i64 %40, 1
  %67 = add nuw nsw i64 %39, 1
  br i1 %65, label %38, label %42, !llvm.loop !14

68:                                               ; preds = %42, %97
  %69 = phi i32 [ %94, %97 ], [ %44, %42 ]
  %70 = phi i32 [ %99, %97 ], [ %43, %42 ]
  %71 = phi i64 [ %98, %97 ], [ 1, %42 ]
  %72 = phi i32 [ %95, %97 ], [ 1, %42 ]
  %73 = icmp slt i32 %72, %69
  br i1 %73, label %74, label %93

74:                                               ; preds = %68
  %75 = sext i32 %70 to i64
  br label %76

76:                                               ; preds = %76, %74
  %77 = phi i64 [ %71, %74 ], [ %84, %76 ]
  %78 = phi i64 [ %75, %74 ], [ %80, %76 ]
  %79 = phi i32 [ %72, %74 ], [ %85, %76 ]
  %80 = add nsw i64 %78, -1
  %81 = getelementptr inbounds [100 x [100 x i32]], [100 x [100 x i32]]* %1, i64 0, i64 %77, i64 %80
  %82 = load i32, i32* %81, align 4, !tbaa !5
  %83 = call i32 (i8*, ...) @printf(i8* nonnull dereferenceable(1) getelementptr inbounds ([4 x i8], [4 x i8]* @.str.2, i64 0, i64 0), i32 %82)
  %84 = add nuw nsw i64 %77, 1
  %85 = add nuw nsw i32 %79, 1
  %86 = load i32, i32* %2, align 4, !tbaa !5
  %87 = sext i32 %86 to i64
  %88 = icmp slt i64 %84, %87
  %89 = icmp sgt i64 %78, 1
  %90 = select i1 %88, i1 %89, i1 false
  %91 = icmp slt i32 %85, %86
  %92 = select i1 %90, i1 %91, i1 false
  br i1 %92, label %76, label %93, !llvm.loop !15

93:                                               ; preds = %76, %68
  %94 = phi i32 [ %69, %68 ], [ %86, %76 ]
  %95 = add nuw nsw i32 %72, 1
  %96 = icmp slt i32 %95, %94
  br i1 %96, label %97, label %100, !llvm.loop !16

97:                                               ; preds = %93
  %98 = add nuw nsw i64 %71, 1
  %99 = load i32, i32* %3, align 4, !tbaa !5
  br label %68

100:                                              ; preds = %93, %42
  call void @llvm.lifetime.end.p0i8(i64 4, i8* nonnull %6) #3
  call void @llvm.lifetime.end.p0i8(i64 4, i8* nonnull %5) #3
  call void @llvm.lifetime.end.p0i8(i64 40000, i8* nonnull %4) #3
  ret void
}

; Function Attrs: argmemonly mustprogress nofree nosync nounwind willreturn
declare void @llvm.lifetime.start.p0i8(i64 immarg, i8* nocapture) #1

; Function Attrs: nofree nounwind
declare noundef i32 @__isoc99_scanf(i8* nocapture noundef readonly, ...) local_unnamed_addr #2

; Function Attrs: nofree nounwind
declare noundef i32 @printf(i8* nocapture noundef readonly, ...) local_unnamed_addr #2

; Function Attrs: argmemonly mustprogress nofree nosync nounwind willreturn
declare void @llvm.lifetime.end.p0i8(i64 immarg, i8* nocapture) #1


!llvm.module.flags = !{!0, !1, !2, !3}
!llvm.ident = !{!4}

!0 = !{i32 1, !"wchar_size", i32 4}
!1 = !{i32 7, !"PIC Level", i32 2}
!2 = !{i32 7, !"PIE Level", i32 2}
!3 = !{i32 7, !"uwtable", i32 1}
!4 = !{!"clang version 13.0.0"}
!5 = !{!6, !6, i64 0}
!6 = !{!"int", !7, i64 0}
!7 = !{!"omnipotent char", !8, i64 0}
!8 = !{!"Simple C/C++ TBAA"}
!9 = distinct !{!9, !10}
!10 = !{!"llvm.loop.mustprogress"}
!11 = distinct !{!11, !10, !12}
!12 = !{!"llvm.loop.unswitch.partial.disable"}
!13 = distinct !{!13, !10}
!14 = distinct !{!14, !10}
!15 = distinct !{!15, !10}
!16 = distinct !{!16, !10}
